; Function Attrs: nounwind uwtable
define range(i32 -1, 2) i32 @stbte__microbutton(i32 noundef %0, i32 noundef %1, i32 noundef %2, i32 noundef %3, i32 noundef %4) local_unnamed_addr #15 {
  %6 = add nsw i32 %2, %0
  %7 = add nsw i32 %2, %1
  %8 = load i32, ptr getelementptr inbounds nuw (i8, ptr @stbte__ui, i64 24), align 8, !tbaa !99
  %.not.i = icmp slt i32 %8, %0
  br i1 %.not.i, label %stbte__hittest.exitthread-pre-split, label %9

9:                                                ; preds = %5
  %10 = load i32, ptr getelementptr inbounds nuw (i8, ptr @stbte__ui, i64 28), align 4, !tbaa !100
  %.not9.i = icmp sge i32 %10, %1
  %11 = icmp slt i32 %8, %6
  %or.cond10.i = and i1 %11, %.not9.i
  %12 = icmp slt i32 %10, %7
  %spec.select.i = and i1 %12, %or.cond10.i
  %13 = load i32, ptr getelementptr inbounds nuw (i8, ptr @stbte__ui, i64 20), align 4
  %14 = icmp sgt i32 %13, 0
  %or.cond.i = select i1 %spec.select.i, i1 %14, i1 false
  br i1 %or.cond.i, label %stbte__hittest.exit.thread, label %stbte__hittest.exit

stbte__hittest.exit.thread:                       ; preds = %9
  store i32 %3, ptr getelementptr inbounds nuw (i8, ptr @stbte__ui, i64 16), align 8, !tbaa !101
  br label %thread-pre-split

stbte__hittest.exitthread-pre-split:              ; preds = %5
  %.pr = load i32, ptr getelementptr inbounds nuw (i8, ptr @stbte__ui, i64 20), align 4, !tbaa !95
  br label %stbte__hittest.exit

stbte__hittest.exit:                              ; preds = %stbte__hittest.exitthread-pre-split, %9
  %15 = phi i32 [ %.pr, %stbte__hittest.exitthread-pre-split ], [ %13, %9 ]
  %16 = icmp eq i32 %15, 0
  br i1 %16, label %17, label %thread-pre-split

17:                                               ; preds = %stbte__hittest.exit
  %18 = load i32, ptr getelementptr inbounds nuw (i8, ptr @stbte__ui, i64 8), align 8, !tbaa !94
  %19 = icmp eq i32 %18, %3
  %20 = zext i1 %19 to i64
  %21 = load i32, ptr getelementptr inbounds nuw (i8, ptr @stbte__ui, i64 12), align 4, !tbaa !102
  %22 = icmp eq i32 %21, %3
  %23 = zext i1 %22 to i64
  %24 = getelementptr inbounds nuw [2 x [2 x i8]], ptr @stbte__state_to_index, i64 0, i64 %20, i64 %23
  %25 = load i8, ptr %24, align 1, !tbaa !47
  %26 = sext i32 %4 to i64
  %27 = getelementptr inbounds [13 x [3 x [7 x i32]]], ptr @stbte__color_table, i64 0, i64 %26
  %28 = zext i8 %25 to i64
  %29 = getelementptr inbounds nuw [7 x i32], ptr %27, i64 0, i64 %28
  %30 = load i32, ptr %29, align 4, !tbaa !67
  tail call void @STBTE_DRAW_RECT(i32 noundef %0, i32 noundef %1, i32 noundef %6, i32 noundef %7, i32 noundef %30) #26
  %31 = getelementptr inbounds nuw i8, ptr %27, i64 28
  %32 = getelementptr inbounds nuw [7 x i32], ptr %31, i64 0, i64 %28
  %33 = load i32, ptr %32, align 4, !tbaa !67
  %34 = add nsw i32 %6, -1
  %35 = add nsw i32 %1, 1
  tail call void @STBTE_DRAW_RECT(i32 noundef %0, i32 noundef %1, i32 noundef %34, i32 noundef %35, i32 noundef %33) #26
  %36 = add nsw i32 %7, -1
  tail call void @STBTE_DRAW_RECT(i32 noundef %34, i32 noundef %1, i32 noundef %6, i32 noundef %36, i32 noundef %33) #26
  %37 = add nsw i32 %0, 1
  tail call void @STBTE_DRAW_RECT(i32 noundef %37, i32 noundef %36, i32 noundef %6, i32 noundef %7, i32 noundef %33) #26
  tail call void @STBTE_DRAW_RECT(i32 noundef %0, i32 noundef %35, i32 noundef %37, i32 noundef %7, i32 noundef %33) #26
  %.pr20.pre = load i32, ptr getelementptr inbounds nuw (i8, ptr @stbte__ui, i64 20), align 4, !tbaa !95
  br label %thread-pre-split

thread-pre-split:                                 ; preds = %17, %stbte__hittest.exit, %stbte__hittest.exit.thread
  %38 = phi i32 [ %13, %stbte__hittest.exit.thread ], [ %15, %stbte__hittest.exit ], [ %.pr20.pre, %17 ]
  switch i32 %38, label %stbte__button_core.exit [
    i32 4, label %39
    i32 5, label %44
    i32 6, label %49
    i32 7, label %54
  ]

39:                                               ; preds = %thread-pre-split
  %40 = load i32, ptr getelementptr inbounds nuw (i8, ptr @stbte__ui, i64 12), align 4, !tbaa !102
  %41 = icmp eq i32 %40, %3
  %42 = load i32, ptr getelementptr inbounds nuw (i8, ptr @stbte__ui, i64 8), align 8
  %43 = icmp eq i32 %42, 0
  %or.cond.i19 = select i1 %41, i1 %43, i1 false
  br i1 %or.cond.i19, label %.sink.split.i, label %stbte__button_core.exit

44:                                               ; preds = %thread-pre-split
  %45 = load i32, ptr getelementptr inbounds nuw (i8, ptr @stbte__ui, i64 8), align 8, !tbaa !94
  %46 = icmp eq i32 %45, %3
  %47 = load i32, ptr getelementptr inbounds nuw (i8, ptr @stbte__ui, i64 12), align 4
  %48 = icmp eq i32 %47, %3
  %or.cond14.i = select i1 %46, i1 %48, i1 false
  br i1 %or.cond14.i, label %.sink.split.i, label %stbte__button_core.exit

49:                                               ; preds = %thread-pre-split
  %50 = load i32, ptr getelementptr inbounds nuw (i8, ptr @stbte__ui, i64 12), align 4, !tbaa !102
  %51 = icmp eq i32 %50, %3
  %52 = load i32, ptr getelementptr inbounds nuw (i8, ptr @stbte__ui, i64 8), align 8
  %53 = icmp eq i32 %52, 0
  %or.cond3.i = select i1 %51, i1 %53, i1 false
  br i1 %or.cond3.i, label %.sink.split.i, label %stbte__button_core.exit

54:                                               ; preds = %thread-pre-split
  %55 = load i32, ptr getelementptr inbounds nuw (i8, ptr @stbte__ui, i64 8), align 8, !tbaa !94
  %56 = icmp eq i32 %55, %3
  %57 = load i32, ptr getelementptr inbounds nuw (i8, ptr @stbte__ui, i64 12), align 4
  %58 = icmp eq i32 %57, %3
  %or.cond16.i = select i1 %56, i1 %58, i1 false
  br i1 %or.cond16.i, label %.sink.split.i, label %stbte__button_core.exit

.sink.split.i:                                    ; preds = %54, %49, %44, %39
  %.sink17.i = phi i32 [ %3, %39 ], [ 0, %44 ], [ %3, %49 ], [ 0, %54 ]
  %.0.ph.i = phi i32 [ 0, %39 ], [ 1, %44 ], [ 0, %49 ], [ -1, %54 ]
  store i32 %.sink17.i, ptr getelementptr inbounds nuw (i8, ptr @stbte__ui, i64 8), align 8, !tbaa !94
  store i32 %38, ptr getelementptr inbounds nuw (i8, ptr @stbte__ui, i64 4), align 4, !tbaa !96
  store i32 0, ptr getelementptr inbounds nuw (i8, ptr @stbte__ui, i64 5244), align 4, !tbaa !97
  store i32 0, ptr getelementptr inbounds nuw (i8, ptr @stbte__ui, i64 5248), align 8, !tbaa !98
  br label %stbte__button_core.exit

stbte__button_core.exit:                          ; preds = %thread-pre-split, %39, %44, %49, %54, %.sink.split.i
  %.0.i = phi i32 [ 0, %54 ], [ 0, %49 ], [ 0, %44 ], [ 0, %39 ], [ 0, %thread-pre-split ], [ %.0.ph.i, %.sink.split.i ]
  ret i32 %.0.i
}